target datalayout = "e-m:e-p270:32:32-p271:32:32-p272:64:64-i64:64-i128:128-f80:128-n8:16:32:64-S128"
target triple = "x86_64-pc-linux-gnu"

%"class.Imath_3_2::Box" = type { %"class.Imath_3_2::Vec2", %"class.Imath_3_2::Vec2" }
%"class.Imath_3_2::Vec2" = type { i32, i32 }

; Function Attrs: mustprogress uwtable
define noundef i64 @_ZN7Imf_3_421bytesPerDeepLineTableERKNS_6HeaderEPciiRSt6vectorImSaImEE(ptr noundef nonnull align 8 dereferenceable(49) %0, ptr noundef %1, i32 noundef %2, i32 noundef %3, ptr noundef nonnull align 8 dereferenceable(24) %4) #6 {
  %6 = alloca ptr, align 8
  %7 = alloca ptr, align 8
  %8 = alloca i32, align 4
  %9 = alloca i32, align 4
  %10 = alloca ptr, align 8
  store ptr %0, ptr %6, align 8, !tbaa !16
  store ptr %1, ptr %7, align 8, !tbaa !10
  store i32 %2, ptr %8, align 4, !tbaa !14
  store i32 %3, ptr %9, align 4, !tbaa !14
  store ptr %4, ptr %10, align 8, !tbaa !18
  %11 = load ptr, ptr %6, align 8, !tbaa !16
  %12 = load ptr, ptr %6, align 8, !tbaa !16
  %13 = call noundef nonnull align 4 dereferenceable(16) ptr @_ZNK7Imf_3_46Header10dataWindowEv(ptr noundef nonnull align 8 dereferenceable(49) %12)
  %14 = getelementptr inbounds nuw %"class.Imath_3_2::Box", ptr %13, i32 0, i32 0
  %15 = getelementptr inbounds nuw %"class.Imath_3_2::Vec2", ptr %14, i32 0, i32 1
  %16 = load i32, ptr %15, align 4, !tbaa !27
  %17 = load ptr, ptr %6, align 8, !tbaa !16
  %18 = call noundef nonnull align 4 dereferenceable(16) ptr @_ZNK7Imf_3_46Header10dataWindowEv(ptr noundef nonnull align 8 dereferenceable(49) %17)
  %19 = getelementptr inbounds nuw %"class.Imath_3_2::Box", ptr %18, i32 0, i32 1
  %20 = getelementptr inbounds nuw %"class.Imath_3_2::Vec2", ptr %19, i32 0, i32 1
  %21 = load i32, ptr %20, align 4, !tbaa !24
  %22 = load ptr, ptr %7, align 8, !tbaa !10
  %23 = load i32, ptr %8, align 4, !tbaa !14
  %24 = load i32, ptr %9, align 4, !tbaa !14
  %25 = load ptr, ptr %10, align 8, !tbaa !18
  %26 = call noundef i64 @_ZN7Imf_3_421bytesPerDeepLineTableERKNS_6HeaderEiiPKciiRSt6vectorImSaImEE(ptr noundef nonnull align 8 dereferenceable(49) %11, i32 noundef %16, i32 noundef %21, ptr noundef %22, i32 noundef %23, i32 noundef %24, ptr noundef nonnull align 8 dereferenceable(24) %25)
  ret i64 %26
}