; Function Attrs: mustprogress uwtable
define noundef i64 @_ZN7Imf_3_421bytesPerDeepLineTableERKNS_6HeaderEPciiRSt6vectorImSaImEE(ptr noundef nonnull align 8 dereferenceable(49) %0, ptr noundef readonly captures(none) %1, i32 noundef %2, i32 noundef %3, ptr noundef nonnull readonly align 8 captures(none) dereferenceable(24) %4) local_unnamed_addr #5 {
  %6 = tail call noundef nonnull align 4 dereferenceable(16) ptr @_ZNK7Imf_3_46Header10dataWindowEv(ptr noundef nonnull align 8 dereferenceable(49) %0)
  %7 = getelementptr inbounds nuw i8, ptr %6, i64 4
  %8 = load i32, ptr %7, align 4, !tbaa !9
  %9 = tail call noundef nonnull align 4 dereferenceable(16) ptr @_ZNK7Imf_3_46Header10dataWindowEv(ptr noundef nonnull align 8 dereferenceable(49) %0)
  %10 = getelementptr inbounds nuw i8, ptr %9, i64 12
  %11 = load i32, ptr %10, align 4, !tbaa !3
  %12 = tail call noundef i64 @_ZN7Imf_3_421bytesPerDeepLineTableERKNS_6HeaderEiiPKciiRSt6vectorImSaImEE(ptr noundef nonnull align 8 dereferenceable(49) %0, i32 noundef %8, i32 noundef %11, ptr noundef %1, i32 noundef %2, i32 noundef %3, ptr noundef nonnull align 8 dereferenceable(24) %4)
  ret i64 %12
}